target datalayout = "e-m:e-p270:32:32-p271:32:32-p272:64:64-i64:64-i128:128-f80:128-n8:16:32:64-S128"
target triple = "x86_64-pc-linux-gnu"

%struct.redisObject = type { i32, i32, ptr }
%struct.getKeysResult = type { i32, i32, [6 x %struct.keyReference], ptr }
%struct.keyReference = type { i32, i32 }

@.str.2 = private unnamed_addr constant [5 x i8] c"db.c\00", align 1
@.str.53 = private unnamed_addr constant [17 x i8] c"!result->numkeys\00", align 1

; Function Attrs: nounwind uwtable
define dso_local ptr @getKeysPrepareResult(ptr noundef %0, i32 noundef %1) #0 {
  %3 = alloca ptr, align 8
  %4 = alloca i32, align 4
  store ptr %0, ptr %3, align 8, !tbaa !22
  store i32 %1, ptr %4, align 4, !tbaa !14
  %5 = load ptr, ptr %3, align 8, !tbaa !22
  %6 = getelementptr inbounds nuw %struct.getKeysResult, ptr %5, i32 0, i32 3
  %7 = load ptr, ptr %6, align 8, !tbaa !209
  %8 = icmp ne ptr %7, null
  br i1 %8, label %30, label %9

9:                                                ; preds = %2
  %10 = load ptr, ptr %3, align 8, !tbaa !22
  %11 = getelementptr inbounds nuw %struct.getKeysResult, ptr %10, i32 0, i32 0
  %12 = load i32, ptr %11, align 8, !tbaa !211
  %13 = icmp ne i32 %12, 0
  %14 = xor i1 %13, true
  %15 = xor i1 %14, true
  %16 = xor i1 %15, true
  %17 = zext i1 %16 to i32
  %18 = sext i32 %17 to i64
  %19 = call i64 @llvm.expect.i64(i64 %18, i64 1)
  %20 = icmp ne i64 %19, 0
  br i1 %20, label %21, label %22

21:                                               ; preds = %9
  br label %24

22:                                               ; preds = %9
  call void @_serverAssert(ptr noundef @.str.53, ptr noundef @.str.2, i32 noundef 2326)
  call void @abort() #16
  unreachable

23:                                               ; No predecessors!
  br label %24

24:                                               ; preds = %23, %21
  %25 = load ptr, ptr %3, align 8, !tbaa !22
  %26 = getelementptr inbounds nuw %struct.getKeysResult, ptr %25, i32 0, i32 2
  %27 = getelementptr inbounds [6 x %struct.keyReference], ptr %26, i64 0, i64 0
  %28 = load ptr, ptr %3, align 8, !tbaa !22
  %29 = getelementptr inbounds nuw %struct.getKeysResult, ptr %28, i32 0, i32 3
  store ptr %27, ptr %29, align 8, !tbaa !209
  br label %30

30:                                               ; preds = %24, %2
  %31 = load i32, ptr %4, align 4, !tbaa !14
  %32 = load ptr, ptr %3, align 8, !tbaa !22
  %33 = getelementptr inbounds nuw %struct.getKeysResult, ptr %32, i32 0, i32 1
  %34 = load i32, ptr %33, align 4, !tbaa !212
  %35 = icmp sgt i32 %31, %34
  br i1 %35, label %36, label %82

36:                                               ; preds = %30
  %37 = load ptr, ptr %3, align 8, !tbaa !22
  %38 = getelementptr inbounds nuw %struct.getKeysResult, ptr %37, i32 0, i32 3
  %39 = load ptr, ptr %38, align 8, !tbaa !209
  %40 = load ptr, ptr %3, align 8, !tbaa !22
  %41 = getelementptr inbounds nuw %struct.getKeysResult, ptr %40, i32 0, i32 2
  %42 = getelementptr inbounds [6 x %struct.keyReference], ptr %41, i64 0, i64 0
  %43 = icmp ne ptr %39, %42
  br i1 %43, label %44, label %54

44:                                               ; preds = %36
  %45 = load ptr, ptr %3, align 8, !tbaa !22
  %46 = getelementptr inbounds nuw %struct.getKeysResult, ptr %45, i32 0, i32 3
  %47 = load ptr, ptr %46, align 8, !tbaa !209
  %48 = load i32, ptr %4, align 4, !tbaa !14
  %49 = sext i32 %48 to i64
  %50 = mul i64 %49, 8
  %51 = call ptr @zrealloc(ptr noundef %47, i64 noundef %50) #20
  %52 = load ptr, ptr %3, align 8, !tbaa !22
  %53 = getelementptr inbounds nuw %struct.getKeysResult, ptr %52, i32 0, i32 3
  store ptr %51, ptr %53, align 8, !tbaa !209
  br label %78

54:                                               ; preds = %36
  %55 = load i32, ptr %4, align 4, !tbaa !14
  %56 = sext i32 %55 to i64
  %57 = mul i64 %56, 8
  %58 = call noalias ptr @zmalloc(i64 noundef %57) #18
  %59 = load ptr, ptr %3, align 8, !tbaa !22
  %60 = getelementptr inbounds nuw %struct.getKeysResult, ptr %59, i32 0, i32 3
  store ptr %58, ptr %60, align 8, !tbaa !209
  %61 = load ptr, ptr %3, align 8, !tbaa !22
  %62 = getelementptr inbounds nuw %struct.getKeysResult, ptr %61, i32 0, i32 0
  %63 = load i32, ptr %62, align 8, !tbaa !211
  %64 = icmp ne i32 %63, 0
  br i1 %64, label %65, label %77

65:                                               ; preds = %54
  %66 = load ptr, ptr %3, align 8, !tbaa !22
  %67 = getelementptr inbounds nuw %struct.getKeysResult, ptr %66, i32 0, i32 3
  %68 = load ptr, ptr %67, align 8, !tbaa !209
  %69 = load ptr, ptr %3, align 8, !tbaa !22
  %70 = getelementptr inbounds nuw %struct.getKeysResult, ptr %69, i32 0, i32 2
  %71 = getelementptr inbounds [6 x %struct.keyReference], ptr %70, i64 0, i64 0
  %72 = load ptr, ptr %3, align 8, !tbaa !22
  %73 = getelementptr inbounds nuw %struct.getKeysResult, ptr %72, i32 0, i32 0
  %74 = load i32, ptr %73, align 8, !tbaa !211
  %75 = sext i32 %74 to i64
  %76 = mul i64 %75, 8
  call void @llvm.memcpy.p0.p0.i64(ptr align 4 %68, ptr align 8 %71, i64 %76, i1 false)
  br label %77

77:                                               ; preds = %65, %54
  br label %78

78:                                               ; preds = %77, %44
  %79 = load i32, ptr %4, align 4, !tbaa !14
  %80 = load ptr, ptr %3, align 8, !tbaa !22
  %81 = getelementptr inbounds nuw %struct.getKeysResult, ptr %80, i32 0, i32 1
  store i32 %79, ptr %81, align 4, !tbaa !212
  br label %82

82:                                               ; preds = %78, %30
  %83 = load ptr, ptr %3, align 8, !tbaa !22
  %84 = getelementptr inbounds nuw %struct.getKeysResult, ptr %83, i32 0, i32 3
  %85 = load ptr, ptr %84, align 8, !tbaa !209
  ret ptr %85
}

; Function Attrs: inlinehint nounwind willreturn memory(read) uwtable
define available_externally i32 @atoi(ptr noundef nonnull %0) #13 {
  %2 = alloca ptr, align 8
  store ptr %0, ptr %2, align 8, !tbaa !78
  %3 = load ptr, ptr %2, align 8, !tbaa !78
  %4 = call i64 @strtol(ptr noundef %3, ptr noundef null, i32 noundef 10) #15
  %5 = trunc i64 %4 to i32
  ret i32 %5
}

; Function Attrs: nounwind uwtable
define dso_local i32 @genericGetKeys(i32 noundef %0, i32 noundef %1, i32 noundef %2, i32 noundef %3, ptr noundef %4, i32 noundef %5, ptr noundef %6) #0 {
  %8 = alloca i32, align 4
  %9 = alloca i32, align 4
  %10 = alloca i32, align 4
  %11 = alloca i32, align 4
  %12 = alloca i32, align 4
  %13 = alloca ptr, align 8
  %14 = alloca i32, align 4
  %15 = alloca ptr, align 8
  %16 = alloca i32, align 4
  %17 = alloca i32, align 4
  %18 = alloca ptr, align 8
  %19 = alloca i32, align 4
  %20 = alloca i32, align 4
  store i32 %0, ptr %9, align 4, !tbaa !14
  store i32 %1, ptr %10, align 4, !tbaa !14
  store i32 %2, ptr %11, align 4, !tbaa !14
  store i32 %3, ptr %12, align 4, !tbaa !14
  store ptr %4, ptr %13, align 8, !tbaa !218
  store i32 %5, ptr %14, align 4, !tbaa !14
  store ptr %6, ptr %15, align 8, !tbaa !22
  call void @llvm.lifetime.start.p0(i64 4, ptr %16) #15
  call void @llvm.lifetime.start.p0(i64 4, ptr %17) #15
  call void @llvm.lifetime.start.p0(i64 8, ptr %18) #15
  %21 = load ptr, ptr %13, align 8, !tbaa !218
  %22 = load i32, ptr %10, align 4, !tbaa !14
  %23 = sext i32 %22 to i64
  %24 = getelementptr inbounds ptr, ptr %21, i64 %23
  %25 = load ptr, ptr %24, align 8, !tbaa !5
  %26 = getelementptr inbounds nuw %struct.redisObject, ptr %25, i32 0, i32 2
  %27 = load ptr, ptr %26, align 8, !tbaa !25
  %28 = call i32 @atoi(ptr noundef %27) #19
  store i32 %28, ptr %17, align 4, !tbaa !14
  %29 = load i32, ptr %17, align 4, !tbaa !14
  %30 = icmp slt i32 %29, 1
  br i1 %30, label %39, label %31

31:                                               ; preds = %7
  %32 = load i32, ptr %17, align 4, !tbaa !14
  %33 = load i32, ptr %14, align 4, !tbaa !14
  %34 = load i32, ptr %11, align 4, !tbaa !14
  %35 = sub nsw i32 %33, %34
  %36 = load i32, ptr %12, align 4, !tbaa !14
  %37 = sdiv i32 %35, %36
  %38 = icmp sgt i32 %32, %37
  br i1 %38, label %39, label %42

39:                                               ; preds = %31, %7
  %40 = load ptr, ptr %15, align 8, !tbaa !22
  %41 = getelementptr inbounds nuw %struct.getKeysResult, ptr %40, i32 0, i32 0
  store i32 0, ptr %41, align 8, !tbaa !211
  store i32 0, ptr %8, align 4
  store i32 1, ptr %19, align 4
  br label %100

42:                                               ; preds = %31
  call void @llvm.lifetime.start.p0(i64 4, ptr %20) #15
  %43 = load i32, ptr %9, align 4, !tbaa !14
  %44 = icmp ne i32 %43, 0
  br i1 %44, label %45, label %48

45:                                               ; preds = %42
  %46 = load i32, ptr %17, align 4, !tbaa !14
  %47 = add nsw i32 %46, 1
  br label %50

48:                                               ; preds = %42
  %49 = load i32, ptr %17, align 4, !tbaa !14
  br label %50

50:                                               ; preds = %48, %45
  %51 = phi i32 [ %47, %45 ], [ %49, %48 ]
  store i32 %51, ptr %20, align 4, !tbaa !14
  %52 = load ptr, ptr %15, align 8, !tbaa !22
  %53 = load i32, ptr %20, align 4, !tbaa !14
  %54 = call ptr @getKeysPrepareResult(ptr noundef %52, i32 noundef %53)
  store ptr %54, ptr %18, align 8, !tbaa !22
  %55 = load i32, ptr %20, align 4, !tbaa !14
  %56 = load ptr, ptr %15, align 8, !tbaa !22
  %57 = getelementptr inbounds nuw %struct.getKeysResult, ptr %56, i32 0, i32 0
  store i32 %55, ptr %57, align 8, !tbaa !211
  store i32 0, ptr %16, align 4, !tbaa !14
  br label %58

58:                                               ; preds = %78, %50
  %59 = load i32, ptr %16, align 4, !tbaa !14
  %60 = load i32, ptr %17, align 4, !tbaa !14
  %61 = icmp slt i32 %59, %60
  br i1 %61, label %62, label %81

62:                                               ; preds = %58
  %63 = load i32, ptr %11, align 4, !tbaa !14
  %64 = load i32, ptr %16, align 4, !tbaa !14
  %65 = load i32, ptr %12, align 4, !tbaa !14
  %66 = mul nsw i32 %64, %65
  %67 = add nsw i32 %63, %66
  %68 = load ptr, ptr %18, align 8, !tbaa !22
  %69 = load i32, ptr %16, align 4, !tbaa !14
  %70 = sext i32 %69 to i64
  %71 = getelementptr inbounds %struct.keyReference, ptr %68, i64 %70
  %72 = getelementptr inbounds nuw %struct.keyReference, ptr %71, i32 0, i32 0
  store i32 %67, ptr %72, align 4, !tbaa !224
  %73 = load ptr, ptr %18, align 8, !tbaa !22
  %74 = load i32, ptr %16, align 4, !tbaa !14
  %75 = sext i32 %74 to i64
  %76 = getelementptr inbounds %struct.keyReference, ptr %73, i64 %75
  %77 = getelementptr inbounds nuw %struct.keyReference, ptr %76, i32 0, i32 1
  store i32 0, ptr %77, align 4, !tbaa !226
  br label %78

78:                                               ; preds = %62
  %79 = load i32, ptr %16, align 4, !tbaa !14
  %80 = add nsw i32 %79, 1
  store i32 %80, ptr %16, align 4, !tbaa !14
  br label %58, !llvm.loop !242

81:                                               ; preds = %58
  %82 = load i32, ptr %9, align 4, !tbaa !14
  %83 = icmp ne i32 %82, 0
  br i1 %83, label %84, label %96

84:                                               ; preds = %81
  %85 = load i32, ptr %9, align 4, !tbaa !14
  %86 = load ptr, ptr %18, align 8, !tbaa !22
  %87 = load i32, ptr %17, align 4, !tbaa !14
  %88 = sext i32 %87 to i64
  %89 = getelementptr inbounds %struct.keyReference, ptr %86, i64 %88
  %90 = getelementptr inbounds nuw %struct.keyReference, ptr %89, i32 0, i32 0
  store i32 %85, ptr %90, align 4, !tbaa !224
  %91 = load ptr, ptr %18, align 8, !tbaa !22
  %92 = load i32, ptr %17, align 4, !tbaa !14
  %93 = sext i32 %92 to i64
  %94 = getelementptr inbounds %struct.keyReference, ptr %91, i64 %93
  %95 = getelementptr inbounds nuw %struct.keyReference, ptr %94, i32 0, i32 1
  store i32 0, ptr %95, align 4, !tbaa !226
  br label %96

96:                                               ; preds = %84, %81
  %97 = load ptr, ptr %15, align 8, !tbaa !22
  %98 = getelementptr inbounds nuw %struct.getKeysResult, ptr %97, i32 0, i32 0
  %99 = load i32, ptr %98, align 8, !tbaa !211
  store i32 %99, ptr %8, align 4
  store i32 1, ptr %19, align 4
  call void @llvm.lifetime.end.p0(i64 4, ptr %20) #15
  br label %100

100:                                              ; preds = %96, %39
  call void @llvm.lifetime.end.p0(i64 8, ptr %18) #15
  call void @llvm.lifetime.end.p0(i64 4, ptr %17) #15
  call void @llvm.lifetime.end.p0(i64 4, ptr %16) #15
  %101 = load i32, ptr %8, align 4
  ret i32 %101
}