; Function Attrs: nounwind uwtable
define dso_local i32 @genericGetKeys(i32 noundef %0, i32 noundef %1, i32 noundef %2, i32 noundef %3, ptr noundef readonly captures(none) %4, i32 noundef %5, ptr noundef %6) local_unnamed_addr #0 {
  %8 = sext i32 %1 to i64
  %9 = getelementptr inbounds ptr, ptr %4, i64 %8
  %10 = load ptr, ptr %9, align 8, !tbaa !105
  %11 = getelementptr inbounds nuw i8, ptr %10, i64 8
  %12 = load ptr, ptr %11, align 8, !tbaa !18
  %13 = tail call i64 @strtol(ptr noundef nonnull captures(none) %12, ptr noundef null, i32 noundef 10) #20
  %14 = trunc i64 %13 to i32
  %15 = icmp slt i32 %14, 1
  br i1 %15, label %20, label %16

16:                                               ; preds = %7
  %17 = sub nsw i32 %5, %2
  %18 = sdiv i32 %17, %3
  %19 = icmp slt i32 %18, %14
  br i1 %19, label %20, label %21

20:                                               ; preds = %16, %7
  store i32 0, ptr %6, align 8, !tbaa !177
  br label %60

21:                                               ; preds = %16
  %.not = icmp ne i32 %0, 0
  %22 = zext i1 %.not to i32
  %23 = add nuw nsw i32 %14, %22
  %24 = getelementptr inbounds nuw i8, ptr %6, i64 56
  %25 = load ptr, ptr %24, align 8, !tbaa !175
  %.not.i = icmp eq ptr %25, null
  br i1 %.not.i, label %26, label %31

26:                                               ; preds = %21
  %27 = load i32, ptr %6, align 8, !tbaa !177
  %.not22.i = icmp eq i32 %27, 0
  br i1 %.not22.i, label %29, label %28, !prof !73

28:                                               ; preds = %26
  tail call void @_serverAssert(ptr noundef nonnull @.str.53, ptr noundef nonnull @.str.2, i32 noundef 2326) #20
  tail call void @abort() #21
  unreachable

29:                                               ; preds = %26
  %30 = getelementptr inbounds nuw i8, ptr %6, i64 8
  store ptr %30, ptr %24, align 8, !tbaa !175
  br label %31

31:                                               ; preds = %29, %21
  %32 = phi ptr [ %30, %29 ], [ %25, %21 ]
  %33 = getelementptr inbounds nuw i8, ptr %6, i64 4
  %34 = load i32, ptr %33, align 4, !tbaa !178
  %35 = icmp sgt i32 %23, %34
  br i1 %35, label %36, label %.lr.ph.preheader

36:                                               ; preds = %31
  %37 = getelementptr inbounds nuw i8, ptr %6, i64 8
  %.not23.i = icmp eq ptr %32, %37
  %38 = zext nneg i32 %23 to i64
  %39 = shl nuw nsw i64 %38, 3
  br i1 %.not23.i, label %42, label %40

40:                                               ; preds = %36
  %41 = tail call ptr @zrealloc(ptr noundef nonnull %32, i64 noundef %39) #25
  store ptr %41, ptr %24, align 8, !tbaa !175
  br label %48

42:                                               ; preds = %36
  %43 = tail call noalias ptr @zmalloc(i64 noundef %39) #23
  store ptr %43, ptr %24, align 8, !tbaa !175
  %44 = load i32, ptr %6, align 8, !tbaa !177
  %.not24.i = icmp eq i32 %44, 0
  br i1 %.not24.i, label %48, label %45

45:                                               ; preds = %42
  %46 = sext i32 %44 to i64
  %47 = shl nsw i64 %46, 3
  tail call void @llvm.memcpy.p0.p0.i64(ptr align 4 %43, ptr nonnull align 8 %37, i64 %47, i1 false)
  br label %48

48:                                               ; preds = %45, %42, %40
  %49 = phi ptr [ %43, %42 ], [ %43, %45 ], [ %41, %40 ]
  store i32 %23, ptr %33, align 4, !tbaa !178
  br label %.lr.ph.preheader

.lr.ph.preheader:                                 ; preds = %48, %31
  %50 = phi ptr [ %49, %48 ], [ %32, %31 ]
  store i32 %23, ptr %6, align 8, !tbaa !177
  %wide.trip.count = and i64 %13, 2147483647
  br label %.lr.ph

.lr.ph:                                           ; preds = %.lr.ph.preheader, %.lr.ph
  %indvars.iv = phi i64 [ 0, %.lr.ph.preheader ], [ %indvars.iv.next, %.lr.ph ]
  %51 = getelementptr inbounds nuw %struct.keyReference, ptr %50, i64 %indvars.iv
  %52 = trunc i64 %indvars.iv to i32
  %53 = mul i32 %3, %52
  %54 = add i32 %53, %2
  store i32 %54, ptr %51, align 4, !tbaa !188
  %55 = getelementptr inbounds nuw i8, ptr %51, i64 4
  store i32 0, ptr %55, align 4, !tbaa !190
  %indvars.iv.next = add nuw nsw i64 %indvars.iv, 1
  %exitcond.not = icmp eq i64 %indvars.iv.next, %wide.trip.count
  br i1 %exitcond.not, label %._crit_edge, label %.lr.ph, !llvm.loop !204

._crit_edge:                                      ; preds = %.lr.ph
  br i1 %.not, label %56, label %60

56:                                               ; preds = %._crit_edge
  %57 = and i64 %13, 2147483647
  %58 = getelementptr inbounds nuw %struct.keyReference, ptr %50, i64 %57
  store i32 %0, ptr %58, align 4, !tbaa !188
  %59 = getelementptr inbounds nuw i8, ptr %58, i64 4
  store i32 0, ptr %59, align 4, !tbaa !190
  br label %60

60:                                               ; preds = %._crit_edge, %56, %20
  %.0 = phi i32 [ 0, %20 ], [ %23, %56 ], [ %23, %._crit_edge ]
  ret i32 %.0
}